; Function Attrs: nounwind uwtable
define hidden void @phpdbg_set_ht_watchpoint(ptr noundef %0, ptr noundef %1) local_unnamed_addr #0 {
  %3 = getelementptr inbounds i8, ptr %0, i64 12
  store ptr %3, ptr %1, align 8
  %4 = getelementptr inbounds i8, ptr %1, i64 8
  store i64 44, ptr %4, align 8
  %5 = getelementptr inbounds i8, ptr %1, i64 24
  store ptr null, ptr %5, align 8
  %6 = getelementptr inbounds i8, ptr %1, i64 88
  store ptr null, ptr %6, align 8
  %7 = getelementptr inbounds i8, ptr %1, i64 32
  tail call void @_zend_hash_init(ptr noundef nonnull %7, i32 noundef 8, ptr noundef null, i1 noundef zeroext false) #17
  %8 = getelementptr inbounds i8, ptr %1, i64 16
  store i32 1, ptr %8, align 8
  ret void
}